#include <math.h>
#include <stdio.h>
#include <stdlib.h>
#include <string.h>

int main()
{
	int a,b,c,d,e;
	scanf("%d",&a);
	b=a%10;
	c=(a%100-b)/10;
	d=(a%1000-b-c*10)/100;
	e=a/1000;
	if(e==0){
		if(d==0){
			if(c==0){
				printf("%d",b);
			}
			else {
				printf("%d%d",b,c);
			}
		}
		else{
			printf("%d%d%d",b,c,d);
		}
	}
	else {
		printf("%d%d%d%d",b,c,d,e);
	}
	return 0;
}